#include <math.h>
#include <stdio.h>
#include <stdlib.h>
#include <string.h>

int a[1005];
int main()
{
 a[0] = 1;
 int  l = 1,n,t = 0,i;
 scanf("%d",&n);
 while(n--)
 {
  for(i = 0;i < l; i++)
     a[i]*=2;   
   for(i = 0;i < l; i++)
   {
     if(a[i]>=10)
     {
      a[i+1] += a[i] / 10;
      a[i] %= 10;
     }
   }
   
   while(a[l])
   {
     if(a[l]>=10)
     {
      a[l+1] += a[l]/10;
      a[l] %= 10;
     }          
     l++;
   }
 }
 for(i = l-1;i >= 0; i--)
 printf("%d",a[i]);
 
 return 0;    
}
