; ModuleID = '25/1081.c'
source_filename = "25/1081.c"
target datalayout = "e-m:e-p270:32:32-p271:32:32-p272:64:64-i64:64-f80:128-n8:16:32:64-S128"
target triple = "x86_64-pc-linux-gnu"

@a = common dso_local global [1005 x i32] zeroinitializer, align 16
@.str = private unnamed_addr constant [3 x i8] c"%d\00", align 1

; Function Attrs: noinline nounwind uwtable
define dso_local i32 @main() #0 {
  %1 = alloca i32, align 4
  %2 = alloca i32, align 4
  %3 = alloca i32, align 4
  %4 = alloca i32, align 4
  %5 = alloca i32, align 4
  store i32 0, i32* %1, align 4
  store i32 1, i32* getelementptr inbounds ([1005 x i32], [1005 x i32]* @a, i64 0, i64 0), align 16
  store i32 1, i32* %2, align 4
  store i32 0, i32* %4, align 4
  %6 = call i32 (i8*, ...) @__isoc99_scanf(i8* getelementptr inbounds ([3 x i8], [3 x i8]* @.str, i64 0, i64 0), i32* %3)
  br label %7

7:                                                ; preds = %90, %0
  %8 = load i32, i32* %3, align 4
  %9 = add nsw i32 %8, -1
  store i32 %9, i32* %3, align 4
  %10 = icmp ne i32 %8, 0
  br i1 %10, label %11, label %91

11:                                               ; preds = %7
  store i32 0, i32* %5, align 4
  br label %12

12:                                               ; preds = %22, %11
  %13 = load i32, i32* %5, align 4
  %14 = load i32, i32* %2, align 4
  %15 = icmp slt i32 %13, %14
  br i1 %15, label %16, label %25

16:                                               ; preds = %12
  %17 = load i32, i32* %5, align 4
  %18 = sext i32 %17 to i64
  %19 = getelementptr inbounds [1005 x i32], [1005 x i32]* @a, i64 0, i64 %18
  %20 = load i32, i32* %19, align 4
  %21 = mul nsw i32 %20, 2
  store i32 %21, i32* %19, align 4
  br label %22

22:                                               ; preds = %16
  %23 = load i32, i32* %5, align 4
  %24 = add nsw i32 %23, 1
  store i32 %24, i32* %5, align 4
  br label %12

25:                                               ; preds = %12
  store i32 0, i32* %5, align 4
  br label %26

26:                                               ; preds = %54, %25
  %27 = load i32, i32* %5, align 4
  %28 = load i32, i32* %2, align 4
  %29 = icmp slt i32 %27, %28
  br i1 %29, label %30, label %57

30:                                               ; preds = %26
  %31 = load i32, i32* %5, align 4
  %32 = sext i32 %31 to i64
  %33 = getelementptr inbounds [1005 x i32], [1005 x i32]* @a, i64 0, i64 %32
  %34 = load i32, i32* %33, align 4
  %35 = icmp sge i32 %34, 10
  br i1 %35, label %36, label %53

36:                                               ; preds = %30
  %37 = load i32, i32* %5, align 4
  %38 = sext i32 %37 to i64
  %39 = getelementptr inbounds [1005 x i32], [1005 x i32]* @a, i64 0, i64 %38
  %40 = load i32, i32* %39, align 4
  %41 = sdiv i32 %40, 10
  %42 = load i32, i32* %5, align 4
  %43 = add nsw i32 %42, 1
  %44 = sext i32 %43 to i64
  %45 = getelementptr inbounds [1005 x i32], [1005 x i32]* @a, i64 0, i64 %44
  %46 = load i32, i32* %45, align 4
  %47 = add nsw i32 %46, %41
  store i32 %47, i32* %45, align 4
  %48 = load i32, i32* %5, align 4
  %49 = sext i32 %48 to i64
  %50 = getelementptr inbounds [1005 x i32], [1005 x i32]* @a, i64 0, i64 %49
  %51 = load i32, i32* %50, align 4
  %52 = srem i32 %51, 10
  store i32 %52, i32* %50, align 4
  br label %53

53:                                               ; preds = %36, %30
  br label %54

54:                                               ; preds = %53
  %55 = load i32, i32* %5, align 4
  %56 = add nsw i32 %55, 1
  store i32 %56, i32* %5, align 4
  br label %26

57:                                               ; preds = %26
  br label %58

58:                                               ; preds = %87, %57
  %59 = load i32, i32* %2, align 4
  %60 = sext i32 %59 to i64
  %61 = getelementptr inbounds [1005 x i32], [1005 x i32]* @a, i64 0, i64 %60
  %62 = load i32, i32* %61, align 4
  %63 = icmp ne i32 %62, 0
  br i1 %63, label %64, label %90

64:                                               ; preds = %58
  %65 = load i32, i32* %2, align 4
  %66 = sext i32 %65 to i64
  %67 = getelementptr inbounds [1005 x i32], [1005 x i32]* @a, i64 0, i64 %66
  %68 = load i32, i32* %67, align 4
  %69 = icmp sge i32 %68, 10
  br i1 %69, label %70, label %87

70:                                               ; preds = %64
  %71 = load i32, i32* %2, align 4
  %72 = sext i32 %71 to i64
  %73 = getelementptr inbounds [1005 x i32], [1005 x i32]* @a, i64 0, i64 %72
  %74 = load i32, i32* %73, align 4
  %75 = sdiv i32 %74, 10
  %76 = load i32, i32* %2, align 4
  %77 = add nsw i32 %76, 1
  %78 = sext i32 %77 to i64
  %79 = getelementptr inbounds [1005 x i32], [1005 x i32]* @a, i64 0, i64 %78
  %80 = load i32, i32* %79, align 4
  %81 = add nsw i32 %80, %75
  store i32 %81, i32* %79, align 4
  %82 = load i32, i32* %2, align 4
  %83 = sext i32 %82 to i64
  %84 = getelementptr inbounds [1005 x i32], [1005 x i32]* @a, i64 0, i64 %83
  %85 = load i32, i32* %84, align 4
  %86 = srem i32 %85, 10
  store i32 %86, i32* %84, align 4
  br label %87

87:                                               ; preds = %70, %64
  %88 = load i32, i32* %2, align 4
  %89 = add nsw i32 %88, 1
  store i32 %89, i32* %2, align 4
  br label %58

90:                                               ; preds = %58
  br label %7

91:                                               ; preds = %7
  %92 = load i32, i32* %2, align 4
  %93 = sub nsw i32 %92, 1
  store i32 %93, i32* %5, align 4
  br label %94

94:                                               ; preds = %103, %91
  %95 = load i32, i32* %5, align 4
  %96 = icmp sge i32 %95, 0
  br i1 %96, label %97, label %106

97:                                               ; preds = %94
  %98 = load i32, i32* %5, align 4
  %99 = sext i32 %98 to i64
  %100 = getelementptr inbounds [1005 x i32], [1005 x i32]* @a, i64 0, i64 %99
  %101 = load i32, i32* %100, align 4
  %102 = call i32 (i8*, ...) @printf(i8* getelementptr inbounds ([3 x i8], [3 x i8]* @.str, i64 0, i64 0), i32 %101)
  br label %103

103:                                              ; preds = %97
  %104 = load i32, i32* %5, align 4
  %105 = add nsw i32 %104, -1
  store i32 %105, i32* %5, align 4
  br label %94

106:                                              ; preds = %94
  ret i32 0
}

declare dso_local i32 @__isoc99_scanf(i8*, ...) #1

declare dso_local i32 @printf(i8*, ...) #1


!llvm.module.flags = !{!0}
!llvm.ident = !{!1}

!0 = !{i32 1, !"wchar_size", i32 4}
!1 = !{!"clang version 10.0.0-4ubuntu1 "}
